; ModuleID = '58/1073.c'
source_filename = "58/1073.c"
target datalayout = "e-m:e-p270:32:32-p271:32:32-p272:64:64-i64:64-f80:128-n8:16:32:64-S128"
target triple = "x86_64-pc-linux-gnu"

@.str = private unnamed_addr constant [4 x i8] c"%d\0A\00", align 1

; Function Attrs: noinline nounwind uwtable
define dso_local void @main() #0 {
  %1 = alloca [100 x i8], align 16
  %2 = alloca i32, align 4
  %3 = alloca i32, align 4
  %4 = alloca i32, align 4
  %5 = alloca i8*, align 8
  %6 = call i32 (i8*, ...) @__isoc99_scanf(i8* getelementptr inbounds ([4 x i8], [4 x i8]* @.str, i64 0, i64 0), i32* %2)
  store i32 0, i32* %3, align 4
  br label %7

7:                                                ; preds = %103, %0
  %8 = load i32, i32* %3, align 4
  %9 = load i32, i32* %2, align 4
  %10 = icmp slt i32 %8, %9
  br i1 %10, label %11, label %106

11:                                               ; preds = %7
  %12 = getelementptr inbounds [100 x i8], [100 x i8]* %1, i64 0, i64 0
  %13 = call i32 (i8*, ...) bitcast (i32 (...)* @gets to i32 (i8*, ...)*)(i8* %12)
  store i32 1, i32* %4, align 4
  %14 = getelementptr inbounds [100 x i8], [100 x i8]* %1, i64 0, i64 0
  store i8* %14, i8** %5, align 8
  %15 = load i8*, i8** %5, align 8
  %16 = load i8, i8* %15, align 1
  %17 = sext i8 %16 to i32
  %18 = icmp sge i32 %17, 1
  br i1 %18, label %19, label %24

19:                                               ; preds = %11
  %20 = load i8*, i8** %5, align 8
  %21 = load i8, i8* %20, align 1
  %22 = sext i8 %21 to i32
  %23 = icmp sle i32 %22, 64
  br i1 %23, label %39, label %24

24:                                               ; preds = %19, %11
  %25 = load i8*, i8** %5, align 8
  %26 = load i8, i8* %25, align 1
  %27 = sext i8 %26 to i32
  %28 = icmp sge i32 %27, 91
  br i1 %28, label %29, label %34

29:                                               ; preds = %24
  %30 = load i8*, i8** %5, align 8
  %31 = load i8, i8* %30, align 1
  %32 = sext i8 %31 to i32
  %33 = icmp sle i32 %32, 96
  br i1 %33, label %39, label %34

34:                                               ; preds = %29, %24
  %35 = load i8*, i8** %5, align 8
  %36 = load i8, i8* %35, align 1
  %37 = sext i8 %36 to i32
  %38 = icmp sge i32 %37, 123
  br i1 %38, label %39, label %45

39:                                               ; preds = %34, %29, %19
  %40 = load i8*, i8** %5, align 8
  %41 = load i8, i8* %40, align 1
  %42 = sext i8 %41 to i32
  %43 = icmp ne i32 %42, 95
  br i1 %43, label %44, label %45

44:                                               ; preds = %39
  store i32 0, i32* %4, align 4
  br label %45

45:                                               ; preds = %44, %39, %34
  %46 = load i8*, i8** %5, align 8
  %47 = getelementptr inbounds i8, i8* %46, i32 1
  store i8* %47, i8** %5, align 8
  br label %48

48:                                               ; preds = %99, %45
  %49 = load i8*, i8** %5, align 8
  %50 = load i8, i8* %49, align 1
  %51 = sext i8 %50 to i32
  %52 = icmp ne i32 %51, 0
  br i1 %52, label %53, label %100

53:                                               ; preds = %48
  %54 = load i8*, i8** %5, align 8
  %55 = load i8, i8* %54, align 1
  %56 = sext i8 %55 to i32
  %57 = icmp sge i32 %56, 1
  br i1 %57, label %58, label %63

58:                                               ; preds = %53
  %59 = load i8*, i8** %5, align 8
  %60 = load i8, i8* %59, align 1
  %61 = sext i8 %60 to i32
  %62 = icmp sle i32 %61, 47
  br i1 %62, label %88, label %63

63:                                               ; preds = %58, %53
  %64 = load i8*, i8** %5, align 8
  %65 = load i8, i8* %64, align 1
  %66 = sext i8 %65 to i32
  %67 = icmp sge i32 %66, 58
  br i1 %67, label %68, label %73

68:                                               ; preds = %63
  %69 = load i8*, i8** %5, align 8
  %70 = load i8, i8* %69, align 1
  %71 = sext i8 %70 to i32
  %72 = icmp sle i32 %71, 64
  br i1 %72, label %88, label %73

73:                                               ; preds = %68, %63
  %74 = load i8*, i8** %5, align 8
  %75 = load i8, i8* %74, align 1
  %76 = sext i8 %75 to i32
  %77 = icmp sge i32 %76, 91
  br i1 %77, label %78, label %83

78:                                               ; preds = %73
  %79 = load i8*, i8** %5, align 8
  %80 = load i8, i8* %79, align 1
  %81 = sext i8 %80 to i32
  %82 = icmp sle i32 %81, 96
  br i1 %82, label %88, label %83

83:                                               ; preds = %78, %73
  %84 = load i8*, i8** %5, align 8
  %85 = load i8, i8* %84, align 1
  %86 = sext i8 %85 to i32
  %87 = icmp sge i32 %86, 123
  br i1 %87, label %88, label %96

88:                                               ; preds = %83, %78, %68, %58
  %89 = load i8*, i8** %5, align 8
  %90 = load i8, i8* %89, align 1
  %91 = sext i8 %90 to i32
  %92 = icmp ne i32 %91, 95
  br i1 %92, label %93, label %96

93:                                               ; preds = %88
  store i32 0, i32* %4, align 4
  %94 = load i8*, i8** %5, align 8
  %95 = getelementptr inbounds i8, i8* %94, i32 1
  store i8* %95, i8** %5, align 8
  br label %99

96:                                               ; preds = %88, %83
  %97 = load i8*, i8** %5, align 8
  %98 = getelementptr inbounds i8, i8* %97, i32 1
  store i8* %98, i8** %5, align 8
  br label %99

99:                                               ; preds = %96, %93
  br label %48

100:                                              ; preds = %48
  %101 = load i32, i32* %4, align 4
  %102 = call i32 (i8*, ...) @printf(i8* getelementptr inbounds ([4 x i8], [4 x i8]* @.str, i64 0, i64 0), i32 %101)
  br label %103

103:                                              ; preds = %100
  %104 = load i32, i32* %3, align 4
  %105 = add nsw i32 %104, 1
  store i32 %105, i32* %3, align 4
  br label %7

106:                                              ; preds = %7
  ret void
}

declare dso_local i32 @__isoc99_scanf(i8*, ...) #1

declare dso_local i32 @gets(...) #1

declare dso_local i32 @printf(i8*, ...) #1


!llvm.module.flags = !{!0}
!llvm.ident = !{!1}

!0 = !{i32 1, !"wchar_size", i32 4}
!1 = !{!"clang version 10.0.0-4ubuntu1 "}
